; Function Attrs: mustprogress uwtable
define hidden noundef zeroext i1 @_ZN3dpx6Writer12WriteElementEiPv(ptr noundef nonnull align 8 dereferenceable(2080) %this, i32 noundef %element, ptr noundef %data) local_unnamed_addr #5 align 2 {
entry:
  %or.cond = icmp ugt i32 %element, 7
  br i1 %or.cond, label %return, label %_ZNK3dpx13GenericHeader15ImageDescriptorEi.exit

_ZNK3dpx13GenericHeader15ImageDescriptorEi.exit:  ; preds = %entry
  %chan.i = getelementptr inbounds i8, ptr %this, i64 788
  %idxprom.i = zext nneg i32 %element to i64
  %descriptor.i = getelementptr inbounds [8 x %"struct.dpx::ImageElement"], ptr %chan.i, i64 0, i64 %idxprom.i, i32 5
  %0 = load i8, ptr %descriptor.i, align 8
  %cmp3 = icmp eq i8 %0, -1
  br i1 %cmp3, label %return, label %if.end5

if.end5:                                          ; preds = %_ZNK3dpx13GenericHeader15ImageDescriptorEi.exit
  %header = getelementptr inbounds i8, ptr %this, i64 8
  %call7 = tail call noundef i32 @_ZNK3dpx13GenericHeader17ComponentDataSizeEi(ptr noundef nonnull align 4 dereferenceable(1664) %header, i32 noundef %element)
  %call8 = tail call noundef zeroext i1 @_ZN3dpx6Writer12WriteElementEiPvNS_8DataSizeE(ptr noundef nonnull align 8 dereferenceable(2080) %this, i32 noundef %element, ptr noundef %data, i32 noundef %call7)
  br label %return

return:                                           ; preds = %_ZNK3dpx13GenericHeader15ImageDescriptorEi.exit, %entry, %if.end5
  %retval.0 = phi i1 [ %call8, %if.end5 ], [ false, %entry ], [ false, %_ZNK3dpx13GenericHeader15ImageDescriptorEi.exit ]
  ret i1 %retval.0
}